; Function Attrs: mustprogress nofree norecurse nosync nounwind willreturn memory(read, inaccessiblemem: none) uwtable
define hidden noundef zeroext i1 @_ZNK11PhaseOutput17contains_as_ownerEP13GrowableArrayIP12MonitorValueEP11ObjectValue(ptr nocapture noundef nonnull readnone align 8 dereferenceable(700) %0, ptr nocapture noundef readonly %1, ptr noundef readnone %2) local_unnamed_addr #4 align 2 {
  %4 = load i32, ptr %1, align 4
  %5 = icmp sgt i32 %4, 0
  br i1 %5, label %.lr.ph, label %._crit_edge

.lr.ph:                                           ; preds = %3
  %6 = getelementptr inbounds i8, ptr %1, i64 8
  %7 = load ptr, ptr %6, align 8
  %8 = zext nneg i32 %4 to i64
  %wide.trip.count = zext nneg i32 %4 to i64
  %9 = load ptr, ptr %7, align 8
  %10 = load ptr, ptr %9, align 8
  %11 = icmp eq ptr %10, %2
  br i1 %11, label %._crit_edge, label %.lr.ph12

.lr.ph12:                                         ; preds = %.lr.ph, %12
  %indvars.iv11 = phi i64 [ %indvars.iv.next, %12 ], [ 0, %.lr.ph ]
  %indvars.iv.next = add nuw nsw i64 %indvars.iv11, 1
  %exitcond.not = icmp eq i64 %indvars.iv.next, %wide.trip.count
  br i1 %exitcond.not, label %._crit_edge.loopexit, label %12, !llvm.loop !26

12:                                               ; preds = %.lr.ph12
  %13 = getelementptr inbounds ptr, ptr %7, i64 %indvars.iv.next
  %14 = load ptr, ptr %13, align 8
  %15 = load ptr, ptr %14, align 8
  %16 = icmp eq ptr %15, %2
  br i1 %16, label %._crit_edge.loopexit, label %.lr.ph12, !llvm.loop !26

._crit_edge.loopexit:                             ; preds = %12, %.lr.ph12
  %17 = icmp ult i64 %indvars.iv.next, %8
  br label %._crit_edge

._crit_edge:                                      ; preds = %._crit_edge.loopexit, %.lr.ph, %3
  %.lcssa = phi i1 [ false, %3 ], [ true, %.lr.ph ], [ %17, %._crit_edge.loopexit ]
  ret i1 %.lcssa
}